; Function Attrs: mustprogress nofree norecurse nosync nounwind willreturn memory(argmem: read) uwtable
define dso_local i32 @XML_GetCurrentByteCount(ptr noundef readonly %0) local_unnamed_addr #5 {
  %2 = icmp eq ptr %0, null
  br i1 %2, label %14, label %3

3:                                                ; preds = %1
  %4 = getelementptr inbounds nuw i8, ptr %0, i64 544
  %5 = load ptr, ptr %4, align 8, !tbaa !205
  %.not = icmp eq ptr %5, null
  br i1 %.not, label %14, label %6

6:                                                ; preds = %3
  %7 = getelementptr inbounds nuw i8, ptr %0, i64 536
  %8 = load ptr, ptr %7, align 8, !tbaa !188
  %.not8 = icmp eq ptr %8, null
  br i1 %.not8, label %14, label %9

9:                                                ; preds = %6
  %10 = ptrtoint ptr %5 to i64
  %11 = ptrtoint ptr %8 to i64
  %12 = sub i64 %10, %11
  %13 = trunc i64 %12 to i32
  br label %14

14:                                               ; preds = %3, %6, %1, %9
  %.0 = phi i32 [ %13, %9 ], [ 0, %1 ], [ 0, %6 ], [ 0, %3 ]
  ret i32 %.0
}